target datalayout = "e-m:e-p270:32:32-p271:32:32-p272:64:64-i64:64-i128:128-f80:128-n8:16:32:64-S128"
target triple = "x86_64-unknown-linux-gnu"

%struct.b2Vec2 = type { float, float }
%struct.b2JointUserData = type { i64 }
%struct.b2WeldJointDef = type { %struct.b2JointDef.base, %struct.b2Vec2, %struct.b2Vec2, float, float, float }
%struct.b2JointDef.base = type <{ i32, [4 x i8], %struct.b2JointUserData, ptr, ptr, i8 }>
%class.b2WeldJoint = type <{ %class.b2Joint, float, float, float, %struct.b2Vec2, %struct.b2Vec2, float, float, %struct.b2Vec3, i32, i32, %struct.b2Vec2, %struct.b2Vec2, %struct.b2Vec2, %struct.b2Vec2, float, float, float, float, %struct.b2Mat33, [4 x i8] }>
%class.b2Joint = type { ptr, i32, ptr, ptr, %struct.b2JointEdge, %struct.b2JointEdge, ptr, ptr, i32, i8, i8, %struct.b2JointUserData }
%struct.b2JointEdge = type { ptr, ptr, ptr, ptr }
%struct.b2Vec3 = type { float, float, float }
%struct.b2Mat33 = type { %struct.b2Vec3, %struct.b2Vec3, %struct.b2Vec3 }

; Function Attrs: mustprogress nounwind uwtable
define linkonce_odr hidden void @_ZN7b2JointD2Ev(ptr noundef nonnull align 8 dereferenceable(128) %this) unnamed_addr #2 comdat align 2 {
entry:
  %this.addr = alloca ptr, align 8
  store ptr %this, ptr %this.addr, align 8
  ret void
}

; Function Attrs: mustprogress nounwind uwtable
define linkonce_odr hidden void @_ZN6b2Vec37SetZeroEv(ptr noundef nonnull align 4 dereferenceable(12) %this) #2 comdat align 2 {
entry:
  %this.addr = alloca ptr, align 8
  store ptr %this, ptr %this.addr, align 8
  %this1 = load ptr, ptr %this.addr, align 8
  %x = getelementptr inbounds %struct.b2Vec3, ptr %this1, i32 0, i32 0
  store float 0.000000e+00, ptr %x, align 4
  %y = getelementptr inbounds %struct.b2Vec3, ptr %this1, i32 0, i32 1
  store float 0.000000e+00, ptr %y, align 4
  %z = getelementptr inbounds %struct.b2Vec3, ptr %this1, i32 0, i32 2
  store float 0.000000e+00, ptr %z, align 4
  ret void
}

; Function Attrs: mustprogress uwtable
define void @_ZN11b2WeldJointC2EPK14b2WeldJointDef(ptr noundef nonnull align 8 dereferenceable(268) %this, ptr noundef %def) unnamed_addr #3 align 2 personality ptr @__gxx_personality_v0 {
entry:
  %this.addr = alloca ptr, align 8
  %def.addr = alloca ptr, align 8
  %exn.slot = alloca ptr, align 8
  %ehselector.slot = alloca i32, align 4
  store ptr %this, ptr %this.addr, align 8
  store ptr %def, ptr %def.addr, align 8
  %this1 = load ptr, ptr %this.addr, align 8
  %0 = load ptr, ptr %def.addr, align 8
  call void @_ZN7b2JointC2EPK10b2JointDef(ptr noundef nonnull align 8 dereferenceable(128) %this1, ptr noundef %0)
  store ptr getelementptr inbounds ({ [14 x ptr] }, ptr @_ZTV11b2WeldJoint, i32 0, i32 0, i32 2), ptr %this1, align 8
  %1 = load ptr, ptr %def.addr, align 8
  %localAnchorA = getelementptr inbounds %struct.b2WeldJointDef, ptr %1, i32 0, i32 1
  %m_localAnchorA2 = getelementptr inbounds %class.b2WeldJoint, ptr %this1, i32 0, i32 4
  call void @llvm.memcpy.p0.p0.i64(ptr align 4 %m_localAnchorA2, ptr align 4 %localAnchorA, i64 8, i1 false)
  %2 = load ptr, ptr %def.addr, align 8
  %localAnchorB = getelementptr inbounds %struct.b2WeldJointDef, ptr %2, i32 0, i32 2
  %m_localAnchorB3 = getelementptr inbounds %class.b2WeldJoint, ptr %this1, i32 0, i32 5
  call void @llvm.memcpy.p0.p0.i64(ptr align 4 %m_localAnchorB3, ptr align 4 %localAnchorB, i64 8, i1 false)
  %3 = load ptr, ptr %def.addr, align 8
  %referenceAngle = getelementptr inbounds %struct.b2WeldJointDef, ptr %3, i32 0, i32 3
  %4 = load float, ptr %referenceAngle, align 4
  %m_referenceAngle = getelementptr inbounds %class.b2WeldJoint, ptr %this1, i32 0, i32 6
  store float %4, ptr %m_referenceAngle, align 4
  %5 = load ptr, ptr %def.addr, align 8
  %stiffness = getelementptr inbounds %struct.b2WeldJointDef, ptr %5, i32 0, i32 4
  %6 = load float, ptr %stiffness, align 8
  %m_stiffness = getelementptr inbounds %class.b2WeldJoint, ptr %this1, i32 0, i32 1
  store float %6, ptr %m_stiffness, align 8
  %7 = load ptr, ptr %def.addr, align 8
  %damping = getelementptr inbounds %struct.b2WeldJointDef, ptr %7, i32 0, i32 5
  %8 = load float, ptr %damping, align 4
  %m_damping = getelementptr inbounds %class.b2WeldJoint, ptr %this1, i32 0, i32 2
  store float %8, ptr %m_damping, align 4
  %m_impulse4 = getelementptr inbounds %class.b2WeldJoint, ptr %this1, i32 0, i32 8
  invoke void @_ZN6b2Vec37SetZeroEv(ptr noundef nonnull align 4 dereferenceable(12) %m_impulse4)
          to label %invoke.cont unwind label %lpad

invoke.cont:                                      ; preds = %entry
  ret void

lpad:                                             ; preds = %entry
  %9 = landingpad { ptr, i32 }
          cleanup
  %10 = extractvalue { ptr, i32 } %9, 0
  store ptr %10, ptr %exn.slot, align 8
  %11 = extractvalue { ptr, i32 } %9, 1
  store i32 %11, ptr %ehselector.slot, align 4
  call void @_ZN7b2JointD2Ev(ptr noundef nonnull align 8 dereferenceable(128) %this1) #8
  br label %eh.resume

eh.resume:                                        ; preds = %lpad
  %exn = load ptr, ptr %exn.slot, align 8
  %sel = load i32, ptr %ehselector.slot, align 4
  %lpad.val = insertvalue { ptr, i32 } poison, ptr %exn, 0
  %lpad.val5 = insertvalue { ptr, i32 } %lpad.val, i32 %sel, 1
  resume { ptr, i32 } %lpad.val5
}