; Function Attrs: mustprogress uwtable
define void @_ZN11b2WeldJointC2EPK14b2WeldJointDef(ptr noundef nonnull align 8 dereferenceable(268) %this, ptr noundef %def) unnamed_addr #1 align 2 personality ptr @__gxx_personality_v0 {
entry:
  tail call void @_ZN7b2JointC2EPK10b2JointDef(ptr noundef nonnull align 8 dereferenceable(128) %this, ptr noundef %def)
  store ptr getelementptr inbounds ({ [14 x ptr] }, ptr @_ZTV11b2WeldJoint, i64 0, i32 0, i64 2), ptr %this, align 8
  %localAnchorA = getelementptr inbounds i8, ptr %def, i64 36
  %m_localAnchorA2 = getelementptr inbounds i8, ptr %this, i64 140
  %0 = load i64, ptr %localAnchorA, align 4
  store i64 %0, ptr %m_localAnchorA2, align 4
  %localAnchorB = getelementptr inbounds i8, ptr %def, i64 44
  %m_localAnchorB3 = getelementptr inbounds i8, ptr %this, i64 148
  %1 = load i64, ptr %localAnchorB, align 4
  store i64 %1, ptr %m_localAnchorB3, align 4
  %referenceAngle = getelementptr inbounds i8, ptr %def, i64 52
  %2 = load float, ptr %referenceAngle, align 4
  %m_referenceAngle = getelementptr inbounds i8, ptr %this, i64 156
  store float %2, ptr %m_referenceAngle, align 4
  %stiffness = getelementptr inbounds i8, ptr %def, i64 56
  %3 = load float, ptr %stiffness, align 8
  %m_stiffness = getelementptr inbounds i8, ptr %this, i64 128
  store float %3, ptr %m_stiffness, align 8
  %damping = getelementptr inbounds i8, ptr %def, i64 60
  %4 = load float, ptr %damping, align 4
  %m_damping = getelementptr inbounds i8, ptr %this, i64 132
  store float %4, ptr %m_damping, align 4
  %m_impulse4 = getelementptr inbounds i8, ptr %this, i64 164
  store <2 x float> zeroinitializer, ptr %m_impulse4, align 4
  %z.i = getelementptr inbounds i8, ptr %this, i64 172
  store float 0.000000e+00, ptr %z.i, align 4
  ret void
}